	.section	__TEXT,__text,regular,pure_instructions
	.build_version macos, 15, 0	sdk_version 15, 1
	.file	0 "/Users/moritz/Repos/base_projects/p_pg1" "ex9_1.c" md5 0xcd2d62667feff6410728d98e160f1946
	.globl	_test_asm                       ; -- Begin function test_asm
	.p2align	2
_test_asm:                              ; @test_asm
Lfunc_begin0:
	.loc	0 8 0                           ; ex9_1.c:8:0
	.cfi_startproc
; %bb.0:
	sub	sp, sp, #16
	.cfi_def_cfa_offset 16
Ltmp1:
	.loc	0 9 6 prologue_end              ; ex9_1.c:9:6
	mov	w8, #5                          ; =0x5
	str	w8, [sp, #12]
	.loc	0 10 9                          ; ex9_1.c:10:9
	ldr	w8, [sp, #12]
	add	w8, w8, #10
	str	w8, [sp, #12]
	.loc	0 11 9                          ; ex9_1.c:11:9
	ldr	w0, [sp, #12]
	.loc	0 11 2 epilogue_begin is_stmt 0 ; ex9_1.c:11:2
	add	sp, sp, #16
	ret
Ltmp2:
Lfunc_end0:
	.cfi_endproc
                                        ; -- End function
	.globl	_main                           ; -- Begin function main
	.p2align	2
_main:                                  ; @main
Lfunc_begin1:
	.loc	0 15 0 is_stmt 1                ; ex9_1.c:15:0
	.cfi_startproc
; %bb.0:
	stp	x28, x27, [sp, #-32]!           ; 16-byte Folded Spill
	stp	x29, x30, [sp, #16]             ; 16-byte Folded Spill
	add	x29, sp, #16
	sub	sp, sp, #1056
	.cfi_def_cfa w29, 16
	.cfi_offset w30, -8
	.cfi_offset w29, -16
	.cfi_offset w27, -24
	.cfi_offset w28, -32
	adrp	x8, ___stack_chk_guard@GOTPAGE
	ldr	x8, [x8, ___stack_chk_guard@GOTPAGEOFF]
	ldr	x8, [x8]
	stur	x8, [x29, #-24]
	str	wzr, [sp, #44]
	str	w0, [sp, #40]
	str	x1, [sp, #32]
Ltmp3:
	.loc	0 18 6 prologue_end             ; ex9_1.c:18:6
	ldr	w8, [sp, #40]
	.loc	0 18 11 is_stmt 0               ; ex9_1.c:18:11
	subs	w8, w8, #1
	cset	w8, le
Ltmp4:
	.loc	0 18 6                          ; ex9_1.c:18:6
	tbnz	w8, #0, LBB1_9
	b	LBB1_1
LBB1_1:
Ltmp5:
	.loc	0 19 7 is_stmt 1                ; ex9_1.c:19:7
	str	wzr, [sp, #28]
Ltmp6:
	.loc	0 21 12                         ; ex9_1.c:21:12
	mov	w8, #1                          ; =0x1
	str	w8, [sp, #20]
	.loc	0 21 8 is_stmt 0                ; ex9_1.c:21:8
	b	LBB1_2
LBB1_2:                                 ; =>This Loop Header: Depth=1
                                        ;     Child Loop BB1_4 Depth 2
Ltmp7:
	.loc	0 21 19                         ; ex9_1.c:21:19
	ldr	w8, [sp, #20]
	.loc	0 21 23                         ; ex9_1.c:21:23
	ldr	w9, [sp, #40]
	.loc	0 21 21                         ; ex9_1.c:21:21
	subs	w8, w8, w9
	cset	w8, ge
Ltmp8:
	.loc	0 21 3                          ; ex9_1.c:21:3
	tbnz	w8, #0, LBB1_8
	b	LBB1_3
LBB1_3:                                 ;   in Loop: Header=BB1_2 Depth=1
Ltmp9:
	.loc	0 22 4 is_stmt 1                ; ex9_1.c:22:4
	b	LBB1_4
LBB1_4:                                 ;   Parent Loop BB1_2 Depth=1
                                        ; =>  This Inner Loop Header: Depth=2
	.loc	0 22 18 is_stmt 0               ; ex9_1.c:22:18
	ldr	x8, [sp, #32]
	.loc	0 22 23                         ; ex9_1.c:22:23
	ldrsw	x9, [sp, #20]
	.loc	0 22 18                         ; ex9_1.c:22:18
	add	x10, x8, x9, lsl #3
	.loc	0 22 25                         ; ex9_1.c:22:25
	ldr	x8, [x10]
	add	x9, x8, #1
	str	x9, [x10]
	.loc	0 22 16                         ; ex9_1.c:22:16
	ldrsb	w8, [x8]
	.loc	0 22 14                         ; ex9_1.c:22:14
	str	w8, [sp, #24]
	.loc	0 22 30                         ; ex9_1.c:22:30
	subs	w8, w8, #0
	cset	w8, eq
	.loc	0 22 4                          ; ex9_1.c:22:4
	tbnz	w8, #0, LBB1_6
	b	LBB1_5
LBB1_5:                                 ;   in Loop: Header=BB1_4 Depth=2
Ltmp10:
	.loc	0 23 44 is_stmt 1               ; ex9_1.c:23:44
	ldr	w8, [sp, #24]
	.loc	0 23 38 is_stmt 0               ; ex9_1.c:23:38
	ldrsw	x10, [sp, #28]
Ltmp11:
	.loc	0 22 4 is_stmt 1                ; ex9_1.c:22:4
	mov	x9, x10
Ltmp12:
	.loc	0 23 38                         ; ex9_1.c:23:38
	add	w9, w9, #1
	str	w9, [sp, #28]
	.loc	0 23 5 is_stmt 0                ; ex9_1.c:23:5
	add	x9, sp, #48
	.loc	0 23 42                         ; ex9_1.c:23:42
	strb	w8, [x9, x10]
Ltmp13:
	.loc	0 22 4 is_stmt 1                ; ex9_1.c:22:4
	b	LBB1_4
LBB1_6:                                 ;   in Loop: Header=BB1_2 Depth=1
	.loc	0 25 37                         ; ex9_1.c:25:37
	ldrsw	x9, [sp, #28]
	.loc	0 22 4                          ; ex9_1.c:22:4
	mov	x8, x9
	.loc	0 25 37                         ; ex9_1.c:25:37
	add	w8, w8, #1
	str	w8, [sp, #28]
	.loc	0 25 4 is_stmt 0                ; ex9_1.c:25:4
	add	x8, sp, #48
	add	x9, x8, x9
	.loc	0 25 41                         ; ex9_1.c:25:41
	mov	w8, #32                         ; =0x20
	strb	w8, [x9]
	.loc	0 26 3 is_stmt 1                ; ex9_1.c:26:3
	b	LBB1_7
Ltmp14:
LBB1_7:                                 ;   in Loop: Header=BB1_2 Depth=1
	.loc	0 21 30                         ; ex9_1.c:21:30
	ldr	w8, [sp, #20]
	add	w8, w8, #1
	str	w8, [sp, #20]
	.loc	0 21 3 is_stmt 0                ; ex9_1.c:21:3
	b	LBB1_2
Ltmp15:
LBB1_8:
	.loc	0 27 16 is_stmt 1               ; ex9_1.c:27:16
	ldr	w8, [sp, #28]
	subs	w9, w8, #1
	str	w9, [sp, #28]
	.loc	0 27 3 is_stmt 0                ; ex9_1.c:27:3
	add	x8, sp, #48
	add	x8, x8, w9, sxtw
	.loc	0 27 40                         ; ex9_1.c:27:40
	strb	wzr, [x8]
	.loc	0 28 2 is_stmt 1                ; ex9_1.c:28:2
	b	LBB1_9
Ltmp16:
LBB1_9:
	.loc	0 29 2                          ; ex9_1.c:29:2
	mov	x9, sp
	add	x8, sp, #48
	str	x8, [x9]
	adrp	x0, l_.str@PAGE
	add	x0, x0, l_.str@PAGEOFF
	bl	_printf
	.loc	0 30 25                         ; ex9_1.c:30:25
	bl	_test_asm
	.loc	0 30 2 is_stmt 0                ; ex9_1.c:30:2
	mov	x9, sp
                                        ; implicit-def: $x8
	mov	x8, x0
	str	x8, [x9]
	adrp	x0, l_.str.1@PAGE
	add	x0, x0, l_.str.1@PAGEOFF
	bl	_printf
	.loc	0 41 2 is_stmt 1                ; ex9_1.c:41:2
	ldur	x9, [x29, #-24]
	adrp	x8, ___stack_chk_guard@GOTPAGE
	ldr	x8, [x8, ___stack_chk_guard@GOTPAGEOFF]
	ldr	x8, [x8]
	subs	x8, x8, x9
	cset	w8, eq
	tbnz	w8, #0, LBB1_11
	b	LBB1_10
LBB1_10:
	bl	___stack_chk_fail
LBB1_11:
	mov	w0, #0                          ; =0x0
	.loc	0 41 2 epilogue_begin is_stmt 0 ; ex9_1.c:41:2
	add	sp, sp, #1056
	ldp	x29, x30, [sp, #16]             ; 16-byte Folded Reload
	ldp	x28, x27, [sp], #32             ; 16-byte Folded Reload
	ret
Ltmp17:
Lfunc_end1:
	.cfi_endproc
                                        ; -- End function
	.section	__TEXT,__cstring,cstring_literals
l_.str:                                 ; @.str
	.asciz	"Moin, %s.\n"

l_.str.1:                               ; @.str.1
	.asciz	"Number: %d\n"
